target datalayout = "e-m:e-p270:32:32-p271:32:32-p272:64:64-i64:64-i128:128-f80:128-n8:16:32:64-S128"
target triple = "x86_64-pc-linux-gnu"

%struct.pointf_s = type { double, double }
%struct.boxf = type { %struct.pointf_s, %struct.pointf_s }
%struct.Agobj_s = type { %struct.Agtag_s, ptr }
%struct.Agtag_s = type { i32, i64 }
%struct.Agraphinfo_t = type { %struct.Agrec_s, ptr, ptr, %struct.boxf, [4 x %struct.pointf_s], i8, i8, i8, i8, i32, double, double, i16, ptr, ptr, ptr, ptr, i32, ptr, ptr, ptr, ptr, i16, i16, i32, ptr, ptr, ptr, ptr, ptr, i32, ptr, ptr, %struct.nlist_t, ptr, ptr, i32, i32, i8, i8, i32, i32, i32, ptr, ptr, ptr, ptr, i8, i8, i8, i8, i8 }
%struct.Agrec_s = type { ptr, ptr }
%struct.nlist_t = type { ptr, i64 }

@.str = private unnamed_addr constant [13 x i8] c"Agraphinfo_t\00", align 1

; Function Attrs: nounwind uwtable
define i32 @gvFreeLayout(ptr noundef %0, ptr noundef %1) #0 {
  %3 = alloca i32, align 4
  %4 = alloca ptr, align 8
  %5 = alloca ptr, align 8
  store ptr %0, ptr %4, align 8, !tbaa !3
  store ptr %1, ptr %5, align 8, !tbaa !45
  %6 = load ptr, ptr %5, align 8, !tbaa !45
  %7 = call ptr @agbindrec(ptr noundef %6, ptr noundef @.str, i32 noundef 0, i32 noundef 1)
  %8 = icmp ne ptr %7, null
  br i1 %8, label %10, label %9

9:                                                ; preds = %2
  store i32 0, ptr %3, align 4
  br label %30

10:                                               ; preds = %2
  %11 = load ptr, ptr %5, align 8, !tbaa !45
  %12 = getelementptr inbounds nuw %struct.Agobj_s, ptr %11, i32 0, i32 1
  %13 = load ptr, ptr %12, align 8, !tbaa !46
  %14 = getelementptr inbounds nuw %struct.Agraphinfo_t, ptr %13, i32 0, i32 15
  %15 = load ptr, ptr %14, align 8, !tbaa !72
  %16 = icmp ne ptr %15, null
  br i1 %16, label %17, label %28

17:                                               ; preds = %10
  %18 = load ptr, ptr %5, align 8, !tbaa !45
  %19 = getelementptr inbounds nuw %struct.Agobj_s, ptr %18, i32 0, i32 1
  %20 = load ptr, ptr %19, align 8, !tbaa !46
  %21 = getelementptr inbounds nuw %struct.Agraphinfo_t, ptr %20, i32 0, i32 15
  %22 = load ptr, ptr %21, align 8, !tbaa !72
  %23 = load ptr, ptr %5, align 8, !tbaa !45
  call void %22(ptr noundef %23)
  %24 = load ptr, ptr %5, align 8, !tbaa !45
  %25 = getelementptr inbounds nuw %struct.Agobj_s, ptr %24, i32 0, i32 1
  %26 = load ptr, ptr %25, align 8, !tbaa !46
  %27 = getelementptr inbounds nuw %struct.Agraphinfo_t, ptr %26, i32 0, i32 15
  store ptr null, ptr %27, align 8, !tbaa !72
  br label %28

28:                                               ; preds = %17, %10
  %29 = load ptr, ptr %5, align 8, !tbaa !45
  call void @graph_cleanup(ptr noundef %29)
  store i32 0, ptr %3, align 4
  br label %30

30:                                               ; preds = %28, %9
  %31 = load i32, ptr %3, align 4
  ret i32 %31
}