; Function Attrs: nounwind uwtable
define noundef i32 @gvFreeLayout(ptr noundef readnone captures(none) %0, ptr noundef %1) local_unnamed_addr #0 {
  %3 = tail call ptr @agbindrec(ptr noundef %1, ptr noundef nonnull @.str, i32 noundef 0, i32 noundef 1) #2
  %.not = icmp eq ptr %3, null
  br i1 %.not, label %13, label %4

4:                                                ; preds = %2
  %5 = getelementptr inbounds nuw i8, ptr %1, i64 16
  %6 = load ptr, ptr %5, align 8, !tbaa !40
  %7 = getelementptr inbounds nuw i8, ptr %6, i64 176
  %8 = load ptr, ptr %7, align 8, !tbaa !65
  %.not6 = icmp eq ptr %8, null
  br i1 %.not6, label %12, label %9

9:                                                ; preds = %4
  tail call void %8(ptr noundef nonnull %1) #2
  %10 = load ptr, ptr %5, align 8, !tbaa !40
  %11 = getelementptr inbounds nuw i8, ptr %10, i64 176
  store ptr null, ptr %11, align 8, !tbaa !65
  br label %12

12:                                               ; preds = %9, %4
  tail call void @graph_cleanup(ptr noundef nonnull %1) #2
  br label %13

13:                                               ; preds = %2, %12
  ret i32 0
}